target datalayout = "e-m:e-p270:32:32-p271:32:32-p272:64:64-i64:64-i128:128-f80:128-n8:16:32:64-S128"
target triple = "x86_64-pc-linux-gnu"

%"class.absl::cord_internal::CordzSampleToken::Iterator" = type { ptr, ptr }

@_ZN4absl13cord_internal16CordzSampleToken8IteratorC1EPKS1_ = dso_local unnamed_addr alias void (ptr, ptr), ptr @_ZN4absl13cord_internal16CordzSampleToken8IteratorC2EPKS1_

; Function Attrs: mustprogress uwtable
define dso_local noundef nonnull align 8 dereferenceable(16) ptr @_ZN4absl13cord_internal16CordzSampleToken8IteratorppEv(ptr noundef nonnull align 8 dereferenceable(16) %0) #0 align 2 {
  %2 = alloca ptr, align 8
  store ptr %0, ptr %2, align 8, !tbaa !4
  %3 = load ptr, ptr %2, align 8
  %4 = getelementptr inbounds nuw %"class.absl::cord_internal::CordzSampleToken::Iterator", ptr %3, i32 0, i32 1
  %5 = load ptr, ptr %4, align 8, !tbaa !9
  %6 = icmp ne ptr %5, null
  br i1 %6, label %7, label %14

7:                                                ; preds = %1
  %8 = getelementptr inbounds nuw %"class.absl::cord_internal::CordzSampleToken::Iterator", ptr %3, i32 0, i32 1
  %9 = load ptr, ptr %8, align 8, !tbaa !9
  %10 = getelementptr inbounds nuw %"class.absl::cord_internal::CordzSampleToken::Iterator", ptr %3, i32 0, i32 0
  %11 = load ptr, ptr %10, align 8, !tbaa !13
  %12 = call noundef ptr @_ZNK4absl13cord_internal9CordzInfo4NextERKNS0_13CordzSnapshotE(ptr noundef nonnull align 8 dereferenceable(1344) %9, ptr noundef nonnull align 8 dereferenceable(32) %11)
  %13 = getelementptr inbounds nuw %"class.absl::cord_internal::CordzSampleToken::Iterator", ptr %3, i32 0, i32 1
  store ptr %12, ptr %13, align 8, !tbaa !9
  br label %14

14:                                               ; preds = %7, %1
  ret ptr %3
}

declare noundef ptr @_ZNK4absl13cord_internal9CordzInfo4NextERKNS0_13CordzSnapshotE(ptr noundef nonnull align 8 dereferenceable(1344), ptr noundef nonnull align 8 dereferenceable(32)) #1

; Function Attrs: mustprogress uwtable
define dso_local { ptr, ptr } @_ZN4absl13cord_internal16CordzSampleToken8IteratorppEi(ptr noundef nonnull align 8 dereferenceable(16) %0, i32 noundef %1) #0 align 2 {
  %3 = alloca %"class.absl::cord_internal::CordzSampleToken::Iterator", align 8
  %4 = alloca ptr, align 8
  %5 = alloca i32, align 4
  store ptr %0, ptr %4, align 8, !tbaa !4
  store i32 %1, ptr %5, align 4, !tbaa !14
  %6 = load ptr, ptr %4, align 8
  call void @llvm.memcpy.p0.p0.i64(ptr align 8 %3, ptr align 8 %6, i64 16, i1 false), !tbaa.struct !16
  %7 = call noundef nonnull align 8 dereferenceable(16) ptr @_ZN4absl13cord_internal16CordzSampleToken8IteratorppEv(ptr noundef nonnull align 8 dereferenceable(16) %6)
  %8 = load { ptr, ptr }, ptr %3, align 8
  ret { ptr, ptr } %8
}

; Function Attrs: nocallback nofree nounwind willreturn memory(argmem: readwrite)
declare void @llvm.memcpy.p0.p0.i64(ptr noalias writeonly captures(none), ptr noalias readonly captures(none), i64, i1 immarg) #2

; Function Attrs: mustprogress nounwind uwtable
define dso_local noundef zeroext i1 @_ZN4absl13cord_internaleqERKNS0_16CordzSampleToken8IteratorES4_(ptr noundef nonnull align 8 dereferenceable(16) %0, ptr noundef nonnull align 8 dereferenceable(16) %1) #3 {
  %3 = alloca ptr, align 8
  %4 = alloca ptr, align 8
  store ptr %0, ptr %3, align 8, !tbaa !4
  store ptr %1, ptr %4, align 8, !tbaa !4
  %5 = load ptr, ptr %3, align 8, !tbaa !4
  %6 = getelementptr inbounds nuw %"class.absl::cord_internal::CordzSampleToken::Iterator", ptr %5, i32 0, i32 1
  %7 = load ptr, ptr %6, align 8, !tbaa !9
  %8 = load ptr, ptr %4, align 8, !tbaa !4
  %9 = getelementptr inbounds nuw %"class.absl::cord_internal::CordzSampleToken::Iterator", ptr %8, i32 0, i32 1
  %10 = load ptr, ptr %9, align 8, !tbaa !9
  %11 = icmp eq ptr %7, %10
  br i1 %11, label %12, label %27

12:                                               ; preds = %2
  %13 = load ptr, ptr %3, align 8, !tbaa !4
  %14 = getelementptr inbounds nuw %"class.absl::cord_internal::CordzSampleToken::Iterator", ptr %13, i32 0, i32 1
  %15 = load ptr, ptr %14, align 8, !tbaa !9
  %16 = icmp eq ptr %15, null
  br i1 %16, label %25, label %17

17:                                               ; preds = %12
  %18 = load ptr, ptr %3, align 8, !tbaa !4
  %19 = getelementptr inbounds nuw %"class.absl::cord_internal::CordzSampleToken::Iterator", ptr %18, i32 0, i32 0
  %20 = load ptr, ptr %19, align 8, !tbaa !13
  %21 = load ptr, ptr %4, align 8, !tbaa !4
  %22 = getelementptr inbounds nuw %"class.absl::cord_internal::CordzSampleToken::Iterator", ptr %21, i32 0, i32 0
  %23 = load ptr, ptr %22, align 8, !tbaa !13
  %24 = icmp eq ptr %20, %23
  br label %25

25:                                               ; preds = %17, %12
  %26 = phi i1 [ true, %12 ], [ %24, %17 ]
  br label %27

27:                                               ; preds = %25, %2
  %28 = phi i1 [ false, %2 ], [ %26, %25 ]
  ret i1 %28
}

; Function Attrs: mustprogress nounwind uwtable
define dso_local noundef zeroext i1 @_ZN4absl13cord_internalneERKNS0_16CordzSampleToken8IteratorES4_(ptr noundef nonnull align 8 dereferenceable(16) %0, ptr noundef nonnull align 8 dereferenceable(16) %1) #3 {
  %3 = alloca ptr, align 8
  %4 = alloca ptr, align 8
  store ptr %0, ptr %3, align 8, !tbaa !4
  store ptr %1, ptr %4, align 8, !tbaa !4
  %5 = load ptr, ptr %3, align 8, !tbaa !4
  %6 = load ptr, ptr %4, align 8, !tbaa !4
  %7 = call noundef zeroext i1 @_ZN4absl13cord_internaleqERKNS0_16CordzSampleToken8IteratorES4_(ptr noundef nonnull align 8 dereferenceable(16) %5, ptr noundef nonnull align 8 dereferenceable(16) %6)
  %8 = xor i1 %7, true
  ret i1 %8
}

; Function Attrs: mustprogress nounwind uwtable
define dso_local noundef nonnull align 8 dereferenceable(1344) ptr @_ZNK4absl13cord_internal16CordzSampleToken8IteratordeEv(ptr noundef nonnull align 8 dereferenceable(16) %0) #3 align 2 {
  %2 = alloca ptr, align 8
  store ptr %0, ptr %2, align 8, !tbaa !4
  %3 = load ptr, ptr %2, align 8
  %4 = getelementptr inbounds nuw %"class.absl::cord_internal::CordzSampleToken::Iterator", ptr %3, i32 0, i32 1
  %5 = load ptr, ptr %4, align 8, !tbaa !9
  ret ptr %5
}

; Function Attrs: mustprogress nounwind uwtable
define dso_local noundef ptr @_ZNK4absl13cord_internal16CordzSampleToken8IteratorptEv(ptr noundef nonnull align 8 dereferenceable(16) %0) #3 align 2 {
  %2 = alloca ptr, align 8
  store ptr %0, ptr %2, align 8, !tbaa !4
  %3 = load ptr, ptr %2, align 8
  %4 = getelementptr inbounds nuw %"class.absl::cord_internal::CordzSampleToken::Iterator", ptr %3, i32 0, i32 1
  %5 = load ptr, ptr %4, align 8, !tbaa !9
  ret ptr %5
}

; Function Attrs: mustprogress uwtable
define dso_local void @_ZN4absl13cord_internal16CordzSampleToken8IteratorC2EPKS1_(ptr noundef nonnull align 8 dereferenceable(16) %0, ptr noundef %1) unnamed_addr #0 align 2 {
  %3 = alloca ptr, align 8
  %4 = alloca ptr, align 8
  store ptr %0, ptr %3, align 8, !tbaa !4
  store ptr %1, ptr %4, align 8, !tbaa !17
  %5 = load ptr, ptr %3, align 8
  %6 = getelementptr inbounds nuw %"class.absl::cord_internal::CordzSampleToken::Iterator", ptr %5, i32 0, i32 0
  %7 = load ptr, ptr %4, align 8, !tbaa !17
  store ptr %7, ptr %6, align 8, !tbaa !13
  %8 = getelementptr inbounds nuw %"class.absl::cord_internal::CordzSampleToken::Iterator", ptr %5, i32 0, i32 1
  %9 = load ptr, ptr %4, align 8, !tbaa !17
  %10 = call noundef ptr @_ZN4absl13cord_internal9CordzInfo4HeadERKNS0_13CordzSnapshotE(ptr noundef nonnull align 8 dereferenceable(32) %9)
  store ptr %10, ptr %8, align 8, !tbaa !9
  ret void
}

declare noundef ptr @_ZN4absl13cord_internal9CordzInfo4HeadERKNS0_13CordzSnapshotE(ptr noundef nonnull align 8 dereferenceable(32)) #1


!llvm.module.flags = !{!0, !1, !2, !3}

!0 = !{i32 1, !"wchar_size", i32 4}
!1 = !{i32 8, !"PIC Level", i32 2}
!2 = !{i32 7, !"PIE Level", i32 2}
!3 = !{i32 7, !"uwtable", i32 2}
!4 = !{!5, !5, i64 0}
!5 = !{!"p1 _ZTSN4absl13cord_internal16CordzSampleToken8IteratorE", !6, i64 0}
!6 = !{!"any pointer", !7, i64 0}
!7 = !{!"omnipotent char", !8, i64 0}
!8 = !{!"Simple C++ TBAA"}
!9 = !{!10, !12, i64 8}
!10 = !{!"_ZTSN4absl13cord_internal16CordzSampleToken8IteratorE", !11, i64 0, !12, i64 8}
!11 = !{!"p1 _ZTSN4absl13cord_internal16CordzSampleTokenE", !6, i64 0}
!12 = !{!"p1 _ZTSN4absl13cord_internal9CordzInfoE", !6, i64 0}
!13 = !{!10, !11, i64 0}
!14 = !{!15, !15, i64 0}
!15 = !{!"int", !7, i64 0}
!16 = !{i64 0, i64 8, !17, i64 8, i64 8, !18}
!17 = !{!11, !11, i64 0}
!18 = !{!12, !12, i64 0}
